(lp1
F1
aF42579999.999999993
aF0.050000000000000003
aF0.001
aF0.10000000000000001
aF10
a(lp2
(lp3
c__builtin__
complex
p4
(F0.0012811000000000001
F1.5807999999999998e-05
tRp5
ag4
(F0.0012809
F-2.0611999999999998e-05
tRp6
ag4
(F0.0012803999999999999
F-5.9014000000000001e-05
tRp7
ag4
(F0.0012796999999999999
F-8.8053000000000006e-05
tRp8
ag4
(F0.001279
F-0.00011137
tRp9
ag4
(F0.0012783
F-0.00012966
tRp10
ag4
(F0.0012777000000000001
F-0.00014322
tRp11
ag4
(F0.0012773000000000001
F-0.00015220000000000001
tRp12
ag4
(F0.0012771
F-0.00015668
tRp13
ag4
(F0.0012771
F-0.00015668
tRp14
ag4
(F0.0012773000000000001
F-0.00015220000000000001
tRp15
ag4
(F0.0012777000000000001
F-0.00014322
tRp16
ag4
(F0.0012783
F-0.00012966
tRp17
ag4
(F0.001279
F-0.00011137
tRp18
ag4
(F0.0012796999999999999
F-8.8053000000000006e-05
tRp19
ag4
(F0.0012803999999999999
F-5.9014000000000001e-05
tRp20
ag4
(F0.0012809
F-2.0611999999999998e-05
tRp21
aa(lp22
g4
(F0.0012811000000000001
F1.5627000000000001e-05
tRp23
ag4
(F0.0012809
F-2.0781999999999999e-05
tRp24
ag4
(F0.0012803999999999999
F-5.9162e-05
tRp25
ag4
(F0.0012796999999999999
F-8.8171999999999995e-05
tRp26
ag4
(F0.001279
F-0.00011145
tRp27
ag4
(F0.0012783
F-0.00012967999999999999
tRp28
ag4
(F0.0012777000000000001
F-0.00014318999999999999
tRp29
ag4
(F0.0012773000000000001
F-0.00015211000000000001
tRp30
ag4
(F0.0012771
F-0.00015652
tRp31
ag4
(F0.0012771
F-0.00015647
tRp32
ag4
(F0.0012773000000000001
F-0.00015196
tRp33
ag4
(F0.0012777999999999999
F-0.00014299000000000001
tRp34
ag4
(F0.0012783
F-0.00012947999999999999
tRp35
ag4
(F0.001279
F-0.00011129999999999999
tRp36
ag4
(F0.0012796999999999999
F-8.8097999999999996e-05
tRp37
ag4
(F0.0012803999999999999
F-5.9154999999999999e-05
tRp38
ag4
(F0.0012809
F-2.0794000000000001e-05
tRp39
aa(lp40
g4
(F0.0012811000000000001
F1.5132e-05
tRp41
ag4
(F0.0012809
F-2.1248999999999999e-05
tRp42
ag4
(F0.0012803999999999999
F-5.9558000000000001e-05
tRp43
ag4
(F0.0012796999999999999
F-8.8435000000000003e-05
tRp44
ag4
(F0.001279
F-0.00011153
tRp45
ag4
(F0.0012784000000000001
F-0.00012957999999999999
tRp46
ag4
(F0.0012777999999999999
F-0.00014292999999999999
tRp47
ag4
(F0.0012773999999999999
F-0.00015174000000000001
tRp48
ag4
(F0.0012772
F-0.00015608000000000001
tRp49
ag4
(F0.0012772
F-0.00015595999999999999
tRp50
ag4
(F0.0012773999999999999
F-0.00015144
tRp51
ag4
(F0.0012777999999999999
F-0.00014253000000000001
tRp52
ag4
(F0.0012784000000000001
F-0.00012918000000000001
tRp53
ag4
(F0.001279
F-0.00011122
tRp54
ag4
(F0.0012796999999999999
F-8.8268000000000003e-05
tRp55
ag4
(F0.0012803999999999999
F-5.9534999999999998e-05
tRp56
ag4
(F0.0012809
F-2.1282999999999999e-05
tRp57
aa(lp58
g4
(F0.001281
F1.4423000000000001e-05
tRp59
ag4
(F0.0012809
F-2.1916000000000002e-05
tRp60
ag4
(F0.0012803999999999999
F-6.0115000000000003e-05
tRp61
ag4
(F0.0012796999999999999
F-8.8795000000000006e-05
tRp62
ag4
(F0.0012791
F-0.00011163
tRp63
ag4
(F0.0012784000000000001
F-0.00012943000000000001
tRp64
ag4
(F0.0012779
F-0.00014258000000000001
tRp65
ag4
(F0.0012775
F-0.00015124
tRp66
ag4
(F0.0012773000000000001
F-0.00015548
tRp67
ag4
(F0.0012773000000000001
F-0.00015530000000000001
tRp68
ag4
(F0.0012775
F-0.00015079000000000001
tRp69
ag4
(F0.0012779
F-0.00014198999999999999
tRp70
ag4
(F0.0012784000000000001
F-0.00012883999999999999
tRp71
ag4
(F0.0012791
F-0.00011115
tRp72
ag4
(F0.0012796999999999999
F-8.8503000000000003e-05
tRp73
ag4
(F0.0012803999999999999
F-6.0049000000000001e-05
tRp74
ag4
(F0.0012807999999999999
F-2.1968e-05
tRp75
aa(lp76
g4
(F0.001281
F1.3631999999999999e-05
tRp77
ag4
(F0.0012809
F-2.2668999999999999e-05
tRp78
ag4
(F0.0012803999999999999
F-6.0741e-05
tRp79
ag4
(F0.0012798
F-8.9201000000000002e-05
tRp80
ag4
(F0.0012791
F-0.00011177
tRp81
ag4
(F0.0012784999999999999
F-0.0001293
tRp82
ag4
(F0.0012780000000000001
F-0.00014223
tRp83
ag4
(F0.0012776
F-0.00015072999999999999
tRp84
ag4
(F0.0012773999999999999
F-0.00015485
tRp85
ag4
(F0.0012775
F-0.00015463
tRp86
ag4
(F0.0012777000000000001
F-0.00015014999999999999
tRp87
ag4
(F0.0012780000000000001
F-0.00014148000000000001
tRp88
ag4
(F0.0012786
F-0.00012852
tRp89
ag4
(F0.0012792000000000001
F-0.00011109
tRp90
ag4
(F0.0012798
F-8.8740999999999996e-05
tRp91
ag4
(F0.0012803999999999999
F-6.0575999999999997e-05
tRp92
ag4
(F0.0012809
F-2.2705999999999999e-05
tRp93
aa(lp94
g4
(F0.0012811000000000001
F1.2894000000000001e-05
tRp95
ag4
(F0.0012809
F-2.3391999999999999e-05
tRp96
ag4
(F0.0012805
F-6.1346000000000005e-05
tRp97
ag4
(F0.0012799
F-8.9598999999999994e-05
tRp98
ag4
(F0.0012792000000000001
F-0.00011192
tRp99
ag4
(F0.0012786
F-0.00012920999999999999
tRp100
ag4
(F0.0012780999999999999
F-0.00014192
tRp101
ag4
(F0.0012777999999999999
F-0.00015025999999999999
tRp102
ag4
(F0.0012776
F-0.00015427999999999999
tRp103
ag4
(F0.0012776
F-0.00015401
tRp104
ag4
(F0.0012777999999999999
F-0.00014957999999999999
tRp105
ag4
(F0.0012782
F-0.00014102
tRp106
ag4
(F0.0012787
F-0.00012825
tRp107
ag4
(F0.0012792999999999999
F-0.00011103
tRp108
ag4
(F0.0012799
F-8.8929000000000002e-05
tRp109
ag4
(F0.0012805
F-6.1022e-05
tRp110
ag4
(F0.0012809
F-2.3363999999999999e-05
tRp111
aa(lp112
g4
(F0.0012811000000000001
F1.2293000000000001e-05
tRp113
ag4
(F0.0012809
F-2.4000999999999999e-05
tRp114
ag4
(F0.0012805
F-6.1867999999999998e-05
tRp115
ag4
(F0.0012799
F-8.9945999999999996e-05
tRp116
ag4
(F0.0012792999999999999
F-0.00011205
tRp117
ag4
(F0.0012787
F-0.00012913000000000001
tRp118
ag4
(F0.0012782
F-0.00014166
tRp119
ag4
(F0.0012779
F-0.00014985000000000001
tRp120
ag4
(F0.0012777000000000001
F-0.00015375999999999999
tRp121
ag4
(F0.0012777000000000001
F-0.00015347000000000001
tRp122
ag4
(F0.0012779
F-0.00014909
tRp123
ag4
(F0.0012783
F-0.00014064000000000001
tRp124
ag4
(F0.0012788000000000001
F-0.00012800999999999999
tRp125
ag4
(F0.0012792999999999999
F-0.00011095999999999999
tRp126
ag4
(F0.0012799
F-8.9052000000000001e-05
tRp127
ag4
(F0.0012805
F-6.1352000000000005e-05
tRp128
ag4
(F0.0012809
F-2.3881000000000001e-05
tRp129
aa(lp130
g4
(F0.0012811000000000001
F1.1829e-05
tRp131
ag4
(F0.001281
F-2.4479999999999999e-05
tRp132
ag4
(F0.0012805
F-6.2287999999999997e-05
tRp133
ag4
(F0.0012799
F-9.0230999999999997e-05
tRp134
ag4
(F0.0012792999999999999
F-0.00011216
tRp135
ag4
(F0.0012788000000000001
F-0.00012907000000000001
tRp136
ag4
(F0.0012783
F-0.00014144
tRp137
ag4
(F0.0012780000000000001
F-0.0001495
tRp138
ag4
(F0.0012777999999999999
F-0.00015333
tRp139
ag4
(F0.0012777999999999999
F-0.00015302999999999999
tRp140
ag4
(F0.0012780000000000001
F-0.00014871
tRp141
ag4
(F0.0012784000000000001
F-0.00014035
tRp142
ag4
(F0.0012788999999999999
F-0.00012783
tRp143
ag4
(F0.0012794
F-0.00011090999999999999
tRp144
ag4
(F0.0012800000000000001
F-8.9141000000000006e-05
tRp145
ag4
(F0.0012806
F-6.1595999999999998e-05
tRp146
ag4
(F0.001281
F-2.4272000000000001e-05
tRp147
aa(lp148
g4
(F0.0012811000000000001
F1.1477e-05
tRp149
ag4
(F0.001281
F-2.4842e-05
tRp150
ag4
(F0.0012806
F-6.2612000000000003e-05
tRp151
ag4
(F0.0012800000000000001
F-9.0456000000000003e-05
tRp152
ag4
(F0.0012794
F-0.00011226
tRp153
ag4
(F0.0012788000000000001
F-0.00012903
tRp154
ag4
(F0.0012784000000000001
F-0.00014127000000000001
tRp155
ag4
(F0.0012780999999999999
F-0.00014922000000000001
tRp156
ag4
(F0.0012779
F-0.00015299000000000001
tRp157
ag4
(F0.0012779
F-0.0001527
tRp158
ag4
(F0.0012780999999999999
F-0.00014842999999999999
tRp159
ag4
(F0.0012784999999999999
F-0.00014014999999999999
tRp160
ag4
(F0.0012788999999999999
F-0.00012771000000000001
tRp161
ag4
(F0.0012795
F-0.00011088
tRp162
ag4
(F0.0012800999999999999
F-8.9219000000000001e-05
tRp163
ag4
(F0.0012806
F-6.1785999999999994e-05
tRp164
ag4
(F0.001281
F-2.4569000000000001e-05
tRp165
aa(lp166
g4
(F0.0012811000000000001
F1.1225e-05
tRp167
ag4
(F0.001281
F-2.5097e-05
tRp168
ag4
(F0.0012805
F-6.2837999999999997e-05
tRp169
ag4
(F0.0012800000000000001
F-9.0617000000000003e-05
tRp170
ag4
(F0.0012794
F-0.00011232
tRp171
ag4
(F0.0012788000000000001
F-0.00012898
tRp172
ag4
(F0.0012784000000000001
F-0.00014112
tRp173
ag4
(F0.0012780999999999999
F-0.00014898999999999999
tRp174
ag4
(F0.0012779
F-0.00015273000000000001
tRp175
ag4
(F0.0012780000000000001
F-0.00015247000000000001
tRp176
ag4
(F0.0012782
F-0.00014825
tRp177
ag4
(F0.0012784999999999999
F-0.00014002
tRp178
ag4
(F0.0012788999999999999
F-0.00012763999999999999
tRp179
ag4
(F0.0012795
F-0.00011088
tRp180
ag4
(F0.0012800999999999999
F-8.9285999999999999e-05
tRp181
ag4
(F0.0012806
F-6.1927999999999994e-05
tRp182
ag4
(F0.001281
F-2.4782000000000001e-05
tRp183
aa(lp184
g4
(F0.0012811000000000001
F1.1060000000000001e-05
tRp185
ag4
(F0.0012809
F-2.5256999999999999e-05
tRp186
ag4
(F0.0012805
F-6.2967999999999997e-05
tRp187
ag4
(F0.0012799
F-9.0711999999999995e-05
tRp188
ag4
(F0.0012792999999999999
F-0.00011234999999999999
tRp189
ag4
(F0.0012788000000000001
F-0.00012893
tRp190
ag4
(F0.0012784000000000001
F-0.00014100000000000001
tRp191
ag4
(F0.0012780999999999999
F-0.00014881000000000001
tRp192
ag4
(F0.0012779
F-0.00015254
tRp193
ag4
(F0.0012780000000000001
F-0.00015231000000000001
tRp194
ag4
(F0.0012780999999999999
F-0.00014814
tRp195
ag4
(F0.0012784999999999999
F-0.00013994999999999999
tRp196
ag4
(F0.0012788999999999999
F-0.00012761000000000001
tRp197
ag4
(F0.0012795
F-0.00011089
tRp198
ag4
(F0.0012800000000000001
F-8.9343000000000002e-05
tRp199
ag4
(F0.0012806
F-6.2030000000000001e-05
tRp200
ag4
(F0.001281
F-2.4927e-05
tRp201
aa(lp202
g4
(F0.0012811000000000001
F1.096e-05
tRp203
ag4
(F0.001281
F-2.5341e-05
tRp204
ag4
(F0.0012805
F-6.3013000000000001e-05
tRp205
ag4
(F0.0012799
F-9.0750999999999999e-05
tRp206
ag4
(F0.0012794
F-0.00011236
tRp207
ag4
(F0.0012788000000000001
F-0.00012888999999999999
tRp208
ag4
(F0.0012784000000000001
F-0.00014091
tRp209
ag4
(F0.0012780999999999999
F-0.00014868999999999999
tRp210
ag4
(F0.0012780000000000001
F-0.00015244
tRp211
ag4
(F0.0012780000000000001
F-0.00015224999999999999
tRp212
ag4
(F0.0012782
F-0.00014809999999999999
tRp213
ag4
(F0.0012784999999999999
F-0.00013993999999999999
tRp214
ag4
(F0.0012788999999999999
F-0.00012763
tRp215
ag4
(F0.0012795
F-0.00011093
tRp216
ag4
(F0.0012800000000000001
F-8.9402999999999998e-05
tRp217
ag4
(F0.0012806
F-6.211e-05
tRp218
ag4
(F0.001281
F-2.5024e-05
tRp219
aa(lp220
g4
(F0.0012811999999999999
F1.0910000000000001e-05
tRp221
ag4
(F0.001281
F-2.5361e-05
tRp222
ag4
(F0.0012806
F-6.2984000000000005e-05
tRp223
ag4
(F0.0012800000000000001
F-9.0740000000000002e-05
tRp224
ag4
(F0.0012794
F-0.00011234
tRp225
ag4
(F0.0012788999999999999
F-0.00012886000000000001
tRp226
ag4
(F0.0012784999999999999
F-0.00014086
tRp227
ag4
(F0.0012782
F-0.00014865000000000001
tRp228
ag4
(F0.0012780999999999999
F-0.00015243
tRp229
ag4
(F0.0012780999999999999
F-0.00015226000000000001
tRp230
ag4
(F0.0012782
F-0.00014814
tRp231
ag4
(F0.0012786
F-0.00013998999999999999
tRp232
ag4
(F0.001279
F-0.00012768
tRp233
ag4
(F0.0012796000000000001
F-0.00011099000000000001
tRp234
ag4
(F0.0012800999999999999
F-8.9466e-05
tRp235
ag4
(F0.0012807000000000001
F-6.2174000000000005e-05
tRp236
ag4
(F0.0012811000000000001
F-2.5083999999999999e-05
tRp237
aa(lp238
g4
(F0.0012813
F1.0910999999999999e-05
tRp239
ag4
(F0.0012811999999999999
F-2.5323000000000001e-05
tRp240
ag4
(F0.0012807000000000001
F-6.2886999999999996e-05
tRp241
ag4
(F0.0012800999999999999
F-9.0678000000000002e-05
tRp242
ag4
(F0.0012795
F-0.00011231
tRp243
ag4
(F0.001279
F-0.00012883999999999999
tRp244
ag4
(F0.0012786
F-0.00014085000000000001
tRp245
ag4
(F0.0012783
F-0.00014867
tRp246
ag4
(F0.0012782
F-0.00015247000000000001
tRp247
ag4
(F0.0012782
F-0.00015233
tRp248
ag4
(F0.0012783
F-0.00014820999999999999
tRp249
ag4
(F0.0012787
F-0.00014006000000000001
tRp250
ag4
(F0.0012791
F-0.00012776000000000001
tRp251
ag4
(F0.0012796999999999999
F-0.00011106
tRp252
ag4
(F0.0012802
F-8.9519999999999997e-05
tRp253
ag4
(F0.0012807999999999999
F-6.2215e-05
tRp254
ag4
(F0.0012811999999999999
F-2.5106999999999999e-05
tRp255
aa(lp256
g4
(F0.0012813
F1.0956e-05
tRp257
ag4
(F0.0012811999999999999
F-2.5235000000000001e-05
tRp258
ag4
(F0.0012807999999999999
F-6.2731999999999995e-05
tRp259
ag4
(F0.0012802
F-9.0562000000000005e-05
tRp260
ag4
(F0.0012796000000000001
F-0.00011225
tRp261
ag4
(F0.001279
F-0.00012882
tRp262
ag4
(F0.0012786
F-0.00014086
tRp263
ag4
(F0.0012783
F-0.00014872
tRp264
ag4
(F0.0012782
F-0.00015254999999999999
tRp265
ag4
(F0.0012782
F-0.00015241000000000001
tRp266
ag4
(F0.0012784000000000001
F-0.0001483
tRp267
ag4
(F0.0012787
F-0.00014014
tRp268
ag4
(F0.0012792000000000001
F-0.00012782000000000001
tRp269
ag4
(F0.0012796999999999999
F-0.0001111
tRp270
ag4
(F0.0012803000000000001
F-8.9549999999999995e-05
tRp271
ag4
(F0.0012807999999999999
F-6.2224000000000006e-05
tRp272
ag4
(F0.0012811999999999999
F-2.5089e-05
tRp273
aa(lp274
g4
(F0.0012811999999999999
F1.1029999999999999e-05
tRp275
ag4
(F0.0012811000000000001
F-2.5119000000000001e-05
tRp276
ag4
(F0.0012807000000000001
F-6.2545999999999994e-05
tRp277
ag4
(F0.0012800999999999999
F-9.0388000000000003e-05
tRp278
ag4
(F0.0012795
F-0.00011216
tRp279
ag4
(F0.0012788999999999999
F-0.00012878999999999999
tRp280
ag4
(F0.0012784999999999999
F-0.00014088999999999999
tRp281
ag4
(F0.0012782
F-0.00014878999999999999
tRp282
ag4
(F0.0012780999999999999
F-0.00015264
tRp283
ag4
(F0.0012780999999999999
F-0.00015249999999999999
tRp284
ag4
(F0.0012783
F-0.00014836999999999999
tRp285
ag4
(F0.0012786
F-0.00014019999999999999
tRp286
ag4
(F0.001279
F-0.00012786000000000001
tRp287
ag4
(F0.0012796000000000001
F-0.00011113
tRp288
ag4
(F0.0012802
F-8.9554000000000004e-05
tRp289
ag4
(F0.0012807000000000001
F-6.2205000000000005e-05
tRp290
ag4
(F0.0012811000000000001
F-2.5043000000000001e-05
tRp291
aa(lp292
g4
(F0.0012811000000000001
F1.1102e-05
tRp293
ag4
(F0.001281
F-2.5007999999999998e-05
tRp294
ag4
(F0.0012805
F-6.2358000000000002e-05
tRp295
ag4
(F0.0012800000000000001
F-9.0166000000000004e-05
tRp296
ag4
(F0.0012792999999999999
F-0.00011203
tRp297
ag4
(F0.0012788000000000001
F-0.00012875000000000001
tRp298
ag4
(F0.0012784000000000001
F-0.00014093999999999999
tRp299
ag4
(F0.0012780999999999999
F-0.00014888
tRp300
ag4
(F0.0012779
F-0.00015273000000000001
tRp301
ag4
(F0.0012779
F-0.00015259
tRp302
ag4
(F0.0012780999999999999
F-0.00014845
tRp303
ag4
(F0.0012784999999999999
F-0.00014025999999999999
tRp304
ag4
(F0.0012788999999999999
F-0.00012790999999999999
tRp305
ag4
(F0.0012795
F-0.00011116
tRp306
ag4
(F0.0012800000000000001
F-8.9561000000000005e-05
tRp307
ag4
(F0.0012806
F-6.2188999999999997e-05
tRp308
ag4
(F0.001281
F-2.4998999999999999e-05
tRp309
aa(lp310
g4
(F0.0012811999999999999
F1.1146e-05
tRp311
ag4
(F0.001281
F-2.4924999999999999e-05
tRp312
ag4
(F0.0012806
F-6.2193999999999994e-05
tRp313
ag4
(F0.0012800000000000001
F-8.9926999999999995e-05
tRp314
ag4
(F0.0012794
F-0.00011188000000000001
tRp315
ag4
(F0.0012788000000000001
F-0.00012873999999999999
tRp316
ag4
(F0.0012784000000000001
F-0.00014102
tRp317
ag4
(F0.0012780999999999999
F-0.00014899999999999999
tRp318
ag4
(F0.0012780000000000001
F-0.00015286
tRp319
ag4
(F0.0012780000000000001
F-0.00015270999999999999
tRp320
ag4
(F0.0012780999999999999
F-0.00014856
tRp321
ag4
(F0.0012784999999999999
F-0.00014035999999999999
tRp322
ag4
(F0.0012788999999999999
F-0.00012799
tRp323
ag4
(F0.0012795
F-0.00011121
tRp324
ag4
(F0.0012800999999999999
F-8.9597000000000003e-05
tRp325
ag4
(F0.0012806
F-6.2200999999999996e-05
tRp326
ag4
(F0.001281
F-2.4983000000000001e-05
tRp327
aa(lp328
g4
(F0.0012813
F1.1161999999999999e-05
tRp329
ag4
(F0.0012811000000000001
F-2.4876e-05
tRp330
ag4
(F0.0012807000000000001
F-6.2074000000000002e-05
tRp331
ag4
(F0.0012800999999999999
F-8.9716000000000006e-05
tRp332
ag4
(F0.0012795
F-0.00011174
tRp333
ag4
(F0.0012788999999999999
F-0.00012873
tRp334
ag4
(F0.0012784999999999999
F-0.00014109999999999999
tRp335
ag4
(F0.0012782
F-0.00014909999999999999
tRp336
ag4
(F0.0012780999999999999
F-0.00015296999999999999
tRp337
ag4
(F0.0012780999999999999
F-0.00015281
tRp338
ag4
(F0.0012782
F-0.00014865000000000001
tRp339
ag4
(F0.0012786
F-0.00014044
tRp340
ag4
(F0.001279
F-0.00012805999999999999
tRp341
ag4
(F0.0012796000000000001
F-0.00011128000000000001
tRp342
ag4
(F0.0012802
F-8.9645e-05
tRp343
ag4
(F0.0012807000000000001
F-6.2230999999999994e-05
tRp344
ag4
(F0.0012811000000000001
F-2.499e-05
tRp345
aa(lp346
g4
(F0.0012813
F1.115e-05
tRp347
ag4
(F0.0012811999999999999
F-2.4870000000000001e-05
tRp348
ag4
(F0.0012807000000000001
F-6.2016999999999999e-05
tRp349
ag4
(F0.0012802
F-8.9577e-05
tRp350
ag4
(F0.0012795
F-0.00011162000000000001
tRp351
ag4
(F0.001279
F-0.00012870000000000001
tRp352
ag4
(F0.0012784999999999999
F-0.00014112
tRp353
ag4
(F0.0012782
F-0.00014913
tRp354
ag4
(F0.0012780999999999999
F-0.00015300000000000001
tRp355
ag4
(F0.0012780999999999999
F-0.00015285
tRp356
ag4
(F0.0012783
F-0.00014870000000000001
tRp357
ag4
(F0.0012786
F-0.00014049000000000001
tRp358
ag4
(F0.0012791
F-0.0001281
tRp359
ag4
(F0.0012796000000000001
F-0.00011131
tRp360
ag4
(F0.0012802
F-8.9680999999999997e-05
tRp361
ag4
(F0.0012807000000000001
F-6.2261999999999994e-05
tRp362
ag4
(F0.0012811999999999999
F-2.5012999999999999e-05
tRp363
aa(lp364
g4
(F0.0012811999999999999
F1.1097000000000001e-05
tRp365
ag4
(F0.0012811000000000001
F-2.4919e-05
tRp366
ag4
(F0.0012807000000000001
F-6.2038999999999993e-05
tRp367
ag4
(F0.0012800999999999999
F-8.9530000000000005e-05
tRp368
ag4
(F0.0012795
F-0.00011152
tRp369
ag4
(F0.0012788999999999999
F-0.00012862999999999999
tRp370
ag4
(F0.0012784999999999999
F-0.00014106000000000001
tRp371
ag4
(F0.0012782
F-0.00014908
tRp372
ag4
(F0.0012780000000000001
F-0.00015296999999999999
tRp373
ag4
(F0.0012780000000000001
F-0.00015283000000000001
tRp374
ag4
(F0.0012782
F-0.00014867999999999999
tRp375
ag4
(F0.0012786
F-0.00014049000000000001
tRp376
ag4
(F0.001279
F-0.00012812000000000001
tRp377
ag4
(F0.0012796000000000001
F-0.00011134
tRp378
ag4
(F0.0012800999999999999
F-8.9716000000000006e-05
tRp379
ag4
(F0.0012807000000000001
F-6.2305999999999996e-05
tRp380
ag4
(F0.0012811000000000001
F-2.5063999999999999e-05
tRp381
aa(lp382
g4
(F0.0012811999999999999
F1.1007e-05
tRp383
ag4
(F0.0012811000000000001
F-2.5012999999999999e-05
tRp384
ag4
(F0.0012807000000000001
F-6.2123000000000001e-05
tRp385
ag4
(F0.0012800999999999999
F-8.9559000000000001e-05
tRp386
ag4
(F0.0012795
F-0.00011145999999999999
tRp387
ag4
(F0.0012788999999999999
F-0.00012852999999999999
tRp388
ag4
(F0.0012784999999999999
F-0.00014095000000000001
tRp389
ag4
(F0.0012782
F-0.00014898
tRp390
ag4
(F0.0012780000000000001
F-0.00015289000000000001
tRp391
ag4
(F0.0012780000000000001
F-0.00015276999999999999
tRp392
ag4
(F0.0012782
F-0.00014865000000000001
tRp393
ag4
(F0.0012784999999999999
F-0.00014046999999999999
tRp394
ag4
(F0.001279
F-0.00012812000000000001
tRp395
ag4
(F0.0012795
F-0.00011136
tRp396
ag4
(F0.0012800999999999999
F-8.9759999999999994e-05
tRp397
ag4
(F0.0012807000000000001
F-6.2368999999999999e-05
tRp398
ag4
(F0.0012811000000000001
F-2.5143e-05
tRp399
aa(lp400
g4
(F0.0012811999999999999
F1.0906e-05
tRp401
ag4
(F0.0012811000000000001
F-2.5123999999999999e-05
tRp402
ag4
(F0.0012807000000000001
F-6.2231999999999996e-05
tRp403
ag4
(F0.0012800999999999999
F-8.9627000000000001e-05
tRp404
ag4
(F0.0012795
F-0.00011144
tRp405
ag4
(F0.001279
F-0.00012842999999999999
tRp406
ag4
(F0.0012784999999999999
F-0.00014082
tRp407
ag4
(F0.0012782
F-0.00014887
tRp408
ag4
(F0.0012780000000000001
F-0.00015279000000000001
tRp409
ag4
(F0.0012780000000000001
F-0.0001527
tRp410
ag4
(F0.0012782
F-0.00014860000000000001
tRp411
ag4
(F0.0012784999999999999
F-0.00014044
tRp412
ag4
(F0.001279
F-0.00012812000000000001
tRp413
ag4
(F0.0012795
F-0.00011139
tRp414
ag4
(F0.0012800999999999999
F-8.9806e-05
tRp415
ag4
(F0.0012807000000000001
F-6.2436999999999999e-05
tRp416
ag4
(F0.0012811000000000001
F-2.5230999999999999e-05
tRp417
aa(lp418
g4
(F0.0012811999999999999
F1.0814e-05
tRp419
ag4
(F0.0012811000000000001
F-2.5225999999999999e-05
tRp420
ag4
(F0.0012807000000000001
F-6.2335999999999994e-05
tRp421
ag4
(F0.0012800999999999999
F-8.9701000000000001e-05
tRp422
ag4
(F0.0012795
F-0.00011143
tRp423
ag4
(F0.001279
F-0.00012835
tRp424
ag4
(F0.0012784999999999999
F-0.0001407
tRp425
ag4
(F0.0012782
F-0.00014875000000000001
tRp426
ag4
(F0.0012780000000000001
F-0.0001527
tRp427
ag4
(F0.0012780000000000001
F-0.00015262000000000001
tRp428
ag4
(F0.0012782
F-0.00014855000000000001
tRp429
ag4
(F0.0012784999999999999
F-0.00014041999999999999
tRp430
ag4
(F0.001279
F-0.00012810999999999999
tRp431
ag4
(F0.0012795
F-0.0001114
tRp432
ag4
(F0.0012800999999999999
F-8.9845000000000005e-05
tRp433
ag4
(F0.0012807000000000001
F-6.2496999999999995e-05
tRp434
ag4
(F0.0012811000000000001
F-2.531e-05
tRp435
aa(lp436
g4
(F0.0012811999999999999
F1.0738e-05
tRp437
ag4
(F0.0012811000000000001
F-2.5310999999999999e-05
tRp438
ag4
(F0.0012807000000000001
F-6.2422000000000006e-05
tRp439
ag4
(F0.0012800999999999999
F-8.9765999999999994e-05
tRp440
ag4
(F0.0012795
F-0.00011143
tRp441
ag4
(F0.001279
F-0.00012828000000000001
tRp442
ag4
(F0.0012784999999999999
F-0.00014061
tRp443
ag4
(F0.0012782
F-0.00014866
tRp444
ag4
(F0.0012780000000000001
F-0.00015262000000000001
tRp445
ag4
(F0.0012780999999999999
F-0.00015255999999999999
tRp446
ag4
(F0.0012782
F-0.0001485
tRp447
ag4
(F0.0012784999999999999
F-0.00014039
tRp448
ag4
(F0.001279
F-0.00012810999999999999
tRp449
ag4
(F0.0012795
F-0.00011142
tRp450
ag4
(F0.0012800999999999999
F-8.9876000000000005e-05
tRp451
ag4
(F0.0012807000000000001
F-6.2545000000000005e-05
tRp452
ag4
(F0.0012811000000000001
F-2.5375e-05
tRp453
aa(lp454
g4
(F0.0012811999999999999
F1.0678e-05
tRp455
ag4
(F0.0012811000000000001
F-2.5377000000000001e-05
tRp456
ag4
(F0.0012807000000000001
F-6.2490000000000006e-05
tRp457
ag4
(F0.0012800999999999999
F-8.9816999999999997e-05
tRp458
ag4
(F0.0012795
F-0.00011143
tRp459
ag4
(F0.001279
F-0.00012823000000000001
tRp460
ag4
(F0.0012784999999999999
F-0.00014053000000000001
tRp461
ag4
(F0.0012782
F-0.00014859000000000001
tRp462
ag4
(F0.0012780999999999999
F-0.00015255999999999999
tRp463
ag4
(F0.0012780999999999999
F-0.00015250999999999999
tRp464
ag4
(F0.0012782
F-0.00014846999999999999
tRp465
ag4
(F0.0012784999999999999
F-0.00014037000000000001
tRp466
ag4
(F0.001279
F-0.0001281
tRp467
ag4
(F0.0012795
F-0.00011143
tRp468
ag4
(F0.0012800999999999999
F-8.9900000000000003e-05
tRp469
ag4
(F0.0012807000000000001
F-6.2582999999999994e-05
tRp470
ag4
(F0.0012811000000000001
F-2.5426e-05
tRp471
aa(lp472
g4
(F0.0012811999999999999
F1.0633e-05
tRp473
ag4
(F0.0012811000000000001
F-2.5426999999999999e-05
tRp474
ag4
(F0.0012807000000000001
F-6.2541999999999999e-05
tRp475
ag4
(F0.0012800999999999999
F-8.9856000000000002e-05
tRp476
ag4
(F0.0012795
F-0.00011144
tRp477
ag4
(F0.001279
F-0.00012819
tRp478
ag4
(F0.0012784999999999999
F-0.00014048000000000001
tRp479
ag4
(F0.0012782
F-0.00014852999999999999
tRp480
ag4
(F0.0012780999999999999
F-0.00015250999999999999
tRp481
ag4
(F0.0012780999999999999
F-0.00015248
tRp482
ag4
(F0.0012782
F-0.00014844000000000001
tRp483
ag4
(F0.0012784999999999999
F-0.00014035999999999999
tRp484
ag4
(F0.001279
F-0.0001281
tRp485
ag4
(F0.0012795
F-0.00011143
tRp486
ag4
(F0.0012800999999999999
F-8.9918000000000002e-05
tRp487
ag4
(F0.0012807000000000001
F-6.2612000000000003e-05
tRp488
ag4
(F0.0012811000000000001
F-2.5465000000000001e-05
tRp489
aa(lp490
g4
(F0.0012811999999999999
F1.0597999999999999e-05
tRp491
ag4
(F0.0012811000000000001
F-2.5466e-05
tRp492
ag4
(F0.0012807000000000001
F-6.2581000000000003e-05
tRp493
ag4
(F0.0012800999999999999
F-8.9884999999999997e-05
tRp494
ag4
(F0.0012795
F-0.00011144
tRp495
ag4
(F0.001279
F-0.00012815999999999999
tRp496
ag4
(F0.0012784999999999999
F-0.00014043000000000001
tRp497
ag4
(F0.0012782
F-0.00014849000000000001
tRp498
ag4
(F0.0012780999999999999
F-0.00015247000000000001
tRp499
ag4
(F0.0012780999999999999
F-0.00015244999999999999
tRp500
ag4
(F0.0012782
F-0.00014841999999999999
tRp501
ag4
(F0.0012786
F-0.00014034
tRp502
ag4
(F0.001279
F-0.00012809
tRp503
ag4
(F0.0012795
F-0.00011144
tRp504
ag4
(F0.0012800999999999999
F-8.9932000000000006e-05
tRp505
ag4
(F0.0012807000000000001
F-6.2633999999999997e-05
tRp506
ag4
(F0.0012811000000000001
F-2.5494e-05
tRp507
aa(lp508
g4
(F0.0012811999999999999
F1.0570999999999999e-05
tRp509
ag4
(F0.0012811000000000001
F-2.5494999999999999e-05
tRp510
ag4
(F0.0012806
F-6.2609999999999999e-05
tRp511
ag4
(F0.0012800999999999999
F-8.9907000000000005e-05
tRp512
ag4
(F0.0012795
F-0.00011144
tRp513
ag4
(F0.001279
F-0.00012814
tRp514
ag4
(F0.0012784999999999999
F-0.0001404
tRp515
ag4
(F0.0012782
F-0.00014846
tRp516
ag4
(F0.0012780999999999999
F-0.00015244
tRp517
ag4
(F0.0012780999999999999
F-0.00015242000000000001
tRp518
ag4
(F0.0012782
F-0.0001484
tRp519
ag4
(F0.0012786
F-0.00014033000000000001
tRp520
ag4
(F0.001279
F-0.00012809
tRp521
ag4
(F0.0012795
F-0.00011144
tRp522
ag4
(F0.0012800999999999999
F-8.9942e-05
tRp523
ag4
(F0.0012806
F-6.2650999999999994e-05
tRp524
ag4
(F0.0012811000000000001
F-2.5517e-05
tRp525
aa(lp526
g4
(F0.0012811999999999999
F1.0550999999999999e-05
tRp527
ag4
(F0.0012811000000000001
F-2.5517999999999999e-05
tRp528
ag4
(F0.0012806
F-6.2632999999999995e-05
tRp529
ag4
(F0.0012800999999999999
F-8.9922999999999999e-05
tRp530
ag4
(F0.0012795
F-0.00011145
tRp531
ag4
(F0.001279
F-0.00012813000000000001
tRp532
ag4
(F0.0012784999999999999
F-0.00014038000000000001
tRp533
ag4
(F0.0012782
F-0.00014842999999999999
tRp534
ag4
(F0.0012780999999999999
F-0.00015242000000000001
tRp535
ag4
(F0.0012780999999999999
F-0.00015239999999999999
tRp536
ag4
(F0.0012782
F-0.00014839000000000001
tRp537
ag4
(F0.0012786
F-0.00014033000000000001
tRp538
ag4
(F0.001279
F-0.00012809
tRp539
ag4
(F0.0012795
F-0.00011144
tRp540
ag4
(F0.0012800999999999999
F-8.9950000000000004e-05
tRp541
ag4
(F0.0012806
F-6.2663999999999995e-05
tRp542
ag4
(F0.0012811000000000001
F-2.5534e-05
tRp543
aa(lp544
g4
(F0.0012811999999999999
F1.0535e-05
tRp545
ag4
(F0.0012811000000000001
F-2.5534999999999999e-05
tRp546
ag4
(F0.0012806
F-6.2650000000000005e-05
tRp547
ag4
(F0.0012800999999999999
F-8.9936000000000001e-05
tRp548
ag4
(F0.0012795
F-0.00011145
tRp549
ag4
(F0.001279
F-0.00012812000000000001
tRp550
ag4
(F0.0012784999999999999
F-0.00014035999999999999
tRp551
ag4
(F0.0012782
F-0.00014841
tRp552
ag4
(F0.0012780999999999999
F-0.00015239999999999999
tRp553
ag4
(F0.0012780999999999999
F-0.00015239
tRp554
ag4
(F0.0012782
F-0.00014838000000000001
tRp555
ag4
(F0.0012786
F-0.00014032000000000001
tRp556
ag4
(F0.001279
F-0.00012809
tRp557
ag4
(F0.0012795
F-0.00011145
tRp558
ag4
(F0.0012800999999999999
F-8.9956000000000004e-05
tRp559
ag4
(F0.0012806
F-6.2674000000000003e-05
tRp560
ag4
(F0.0012811000000000001
F-2.5548e-05
tRp561
aaa(lp562
(lp563
g4
(F-2.9695999999999999e-06
F-4.3384999999999999e-05
tRp564
ag4
(F-2.6353999999999998e-06
F-3.6702999999999997e-05
tRp565
ag4
(F-2.2311000000000001e-06
F-2.9241e-05
tRp566
ag4
(F-1.8021000000000001e-06
F-2.2405999999999999e-05
tRp567
ag4
(F-1.3970999999999999e-06
F-1.6668999999999999e-05
tRp568
ag4
(F-1.0567e-06
F-1.2245999999999999e-05
tRp569
ag4
(F-8.1220999999999999e-07
F-9.2489000000000005e-06
tRp570
ag4
(F-6.8464999999999998e-07
F-7.7375e-06
tRp571
ag4
(F-6.8464999999999998e-07
F-7.7375e-06
tRp572
ag4
(F-8.1220999999999999e-07
F-9.2489000000000005e-06
tRp573
ag4
(F-1.0567e-06
F-1.2245999999999999e-05
tRp574
ag4
(F-1.3970999999999999e-06
F-1.6668999999999999e-05
tRp575
ag4
(F-1.8021000000000001e-06
F-2.2405999999999999e-05
tRp576
ag4
(F-2.2311000000000001e-06
F-2.9241e-05
tRp577
ag4
(F-2.6353999999999998e-06
F-3.6702999999999997e-05
tRp578
ag4
(F-2.9695999999999999e-06
F-4.3384999999999999e-05
tRp579
aa(lp580
g4
(F-3.5841000000000001e-06
F-4.1285999999999997e-05
tRp581
ag4
(F-3.2451999999999999e-06
F-3.4567000000000003e-05
tRp582
ag4
(F-2.8552000000000002e-06
F-2.7668e-05
tRp583
ag4
(F-2.4518e-06
F-2.1495999999999999e-05
tRp584
ag4
(F-2.0731999999999999e-06
F-1.6311e-05
tRp585
ag4
(F-1.7517000000000001e-06
F-1.2225000000000001e-05
tRp586
ag4
(F-1.5146000000000001e-06
F-9.3362000000000005e-06
tRp587
ag4
(F-1.3844e-06
F-7.7605999999999999e-06
tRp588
ag4
(F-1.3770999999999999e-06
F-7.6233999999999997e-06
tRp589
ag4
(F-1.4983999999999999e-06
F-9.0272000000000006e-06
tRp590
ag4
(F-1.7409999999999999e-06
F-1.202e-05
tRp591
ag4
(F-2.0837000000000001e-06
F-1.6577000000000001e-05
tRp592
ag4
(F-2.4924000000000001e-06
F-2.2583e-05
tRp593
ag4
(F-2.9212999999999999e-06
F-2.9773000000000001e-05
tRp594
ag4
(F-3.3160000000000001e-06
F-3.7499999999999997e-05
tRp595
ag4
(F-3.6268000000000002e-06
F-4.3779000000000002e-05
tRp596
aa(lp597
g4
(F-4.7412999999999998e-06
F-3.7842999999999997e-05
tRp598
ag4
(F-4.4155000000000003e-06
F-3.1412999999999999e-05
tRp599
ag4
(F-4.0596000000000001e-06
F-2.5312000000000001e-05
tRp600
ag4
(F-3.7011e-06
F-2.0017000000000002e-05
tRp601
ag4
(F-3.366e-06
F-1.5579000000000001e-05
tRp602
ag4
(F-3.0771000000000002e-06
F-1.1999e-05
tRp603
ag4
(F-2.8567000000000001e-06
F-9.3395999999999995e-06
tRp604
ag4
(F-2.7286999999999998e-06
F-7.7605999999999999e-06
tRp605
ag4
(F-2.7147e-06
F-7.4946000000000002e-06
tRp606
ag4
(F-2.8270000000000002e-06
F-8.7582000000000003e-06
tRp607
ag4
(F-3.0601999999999999e-06
F-1.1654999999999999e-05
tRp608
ag4
(F-3.3909e-06
F-1.6160000000000001e-05
tRp609
ag4
(F-3.7823000000000002e-06
F-2.2158e-05
tRp610
ag4
(F-4.1879000000000002e-06
F-2.9383e-05
tRp611
ag4
(F-4.5519000000000004e-06
F-3.7042000000000002e-05
tRp612
ag4
(F-4.8233000000000001e-06
F-4.2506999999999998e-05
tRp613
aa(lp614
g4
(F-5.0624e-06
F-3.3627999999999997e-05
tRp615
ag4
(F-4.7632999999999998e-06
F-2.7772000000000001e-05
tRp616
ag4
(F-4.4534999999999998e-06
F-2.2612999999999998e-05
tRp617
ag4
(F-4.1490999999999998e-06
F-1.8280000000000001e-05
tRp618
ag4
(F-3.8654999999999997e-06
F-1.4666e-05
tRp619
ag4
(F-3.6173000000000001e-06
F-1.1691e-05
tRp620
ag4
(F-3.4215000000000002e-06
F-9.3695999999999992e-06
tRp621
ag4
(F-3.3007e-06
F-7.8636000000000004e-06
tRp622
ag4
(F-3.2814999999999998e-06
F-7.4876000000000001e-06
tRp623
ag4
(F-3.3830000000000001e-06
F-8.5847999999999995e-06
tRp624
ag4
(F-3.6016e-06
F-1.1314e-05
tRp625
ag4
(F-3.9106000000000003e-06
F-1.5631999999999999e-05
tRp626
ag4
(F-4.2710999999999996e-06
F-2.1413999999999999e-05
tRp627
ag4
(F-4.6375000000000001e-06
F-2.8408e-05
tRp628
ag4
(F-4.9560999999999999e-06
F-3.5657000000000001e-05
tRp629
ag4
(F-5.1773999999999998e-06
F-3.9860000000000001e-05
tRp630
aa(lp631
g4
(F-4.0249999999999996e-06
F-2.9139999999999999e-05
tRp632
ag4
(F-3.7608000000000001e-06
F-2.4063e-05
tRp633
ag4
(F-3.5008999999999998e-06
F-1.9891e-05
tRp634
ag4
(F-3.2515999999999999e-06
F-1.6501e-05
tRp635
ag4
(F-3.0203999999999999e-06
F-1.3699e-05
tRp636
ag4
(F-2.8156000000000002e-06
F-1.1358e-05
tRp637
ag4
(F-2.6494e-06
F-9.4494999999999999e-06
tRp638
ag4
(F-2.5411999999999999e-06
F-8.0988999999999997e-06
tRp639
ag4
(F-2.5189999999999999e-06
F-7.6483999999999995e-06
tRp640
ag4
(F-2.6091999999999999e-06
F-8.5632999999999998e-06
tRp641
ag4
(F-2.8105e-06
F-1.1079e-05
tRp642
ag4
(F-3.0929999999999999e-06
F-1.5131e-05
tRp643
ag4
(F-3.4157000000000002e-06
F-2.0576000000000001e-05
tRp644
ag4
(F-3.7347999999999998e-06
F-2.7151000000000001e-05
tRp645
ag4
(F-3.9997e-06
F-3.3673000000000001e-05
tRp646
ag4
(F-4.1652000000000004e-06
F-3.6217000000000002e-05
tRp647
aa(lp648
g4
(F-2.74e-06
F-2.4652999999999999e-05
tRp649
ag4
(F-2.5133999999999999e-06
F-2.0445000000000002e-05
tRp650
ag4
(F-2.3016999999999999e-06
F-1.7214000000000002e-05
tRp651
ag4
(F-2.1038000000000001e-06
F-1.4684e-05
tRp652
ag4
(F-1.9217000000000002e-06
F-1.2627e-05
tRp653
ag4
(F-1.7597000000000001e-06
F-1.0896999999999999e-05
tRp654
ag4
(F-1.6255999999999999e-06
F-9.4362999999999998e-06
tRp655
ag4
(F-1.5346000000000001e-06
F-8.3149999999999992e-06
tRp656
ag4
(F-1.513e-06
F-7.8429000000000008e-06
tRp657
ag4
(F-1.5923e-06
F-8.5760000000000006e-06
tRp658
ag4
(F-1.7756e-06
F-1.0859000000000001e-05
tRp659
ag4
(F-2.0300999999999998e-06
F-1.4617000000000001e-05
tRp660
ag4
(F-2.3132999999999999e-06
F-1.9675999999999999e-05
tRp661
ag4
(F-2.5824e-06
F-2.5721999999999999e-05
tRp662
ag4
(F-2.7901000000000002e-06
F-3.1262e-05
tRp663
ag4
(F-2.8978e-06
F-3.1943999999999998e-05
tRp664
aa(lp665
g4
(F-2.3491999999999999e-06
F-2.0326000000000002e-05
tRp666
ag4
(F-2.1592999999999998e-06
F-1.6973000000000002e-05
tRp667
ag4
(F-1.9912000000000001e-06
F-1.4578e-05
tRp668
ag4
(F-1.8387000000000001e-06
F-1.2792999999999999e-05
tRp669
ag4
(F-1.7009000000000001e-06
F-1.1387e-05
tRp670
ag4
(F-1.579e-06
F-1.0215e-05
tRp671
ag4
(F-1.4775e-06
F-9.2013999999999997e-06
tRp672
ag4
(F-1.4072000000000001e-06
F-8.3612000000000005e-06
tRp673
ag4
(F-1.3901e-06
F-7.9287999999999994e-06
tRp674
ag4
(F-1.4598e-06
F-8.4913999999999997e-06
tRp675
ag4
(F-1.6252999999999999e-06
F-1.0535e-05
tRp676
ag4
(F-1.8524e-06
F-1.3995999999999999e-05
tRp677
ag4
(F-2.0968e-06
F-1.8657000000000001e-05
tRp678
ag4
(F-2.3163000000000002e-06
F-2.4100999999999998e-05
tRp679
ag4
(F-2.4663999999999998e-06
F-2.8470999999999999e-05
tRp680
ag4
(F-2.5177999999999998e-06
F-2.7368e-05
tRp681
aa(lp682
g4
(F-2.5608999999999999e-06
F-1.6299000000000001e-05
tRp683
ag4
(F-2.4049e-06
F-1.3737000000000001e-05
tRp684
ag4
(F-2.2749e-06
F-1.2062000000000001e-05
tRp685
ag4
(F-2.1621999999999998e-06
F-1.0909e-05
tRp686
ag4
(F-2.0636e-06
F-1.0062e-05
tRp687
ag4
(F-1.9784e-06
F-9.3849000000000006e-06
tRp688
ag4
(F-1.9085999999999998e-06
F-8.7926999999999997e-06
tRp689
ag4
(F-1.8609e-06
F-8.2582e-06
tRp690
ag4
(F-1.852e-06
F-7.9212999999999999e-06
tRp691
ag4
(F-1.9138000000000002e-06
F-8.3266999999999994e-06
tRp692
ag4
(F-2.0619999999999999e-06
F-1.0117e-05
tRp693
ag4
(F-2.2626000000000002e-06
F-1.3271999999999999e-05
tRp694
ag4
(F-2.4696e-06
F-1.7516999999999998e-05
tRp695
ag4
(F-2.6409e-06
F-2.2277e-05
tRp696
ag4
(F-2.7348999999999999e-06
F-2.533e-05
tRp697
ag4
(F-2.7339000000000002e-06
F-2.2758000000000001e-05
tRp698
aa(lp699
g4
(F-2.5328000000000001e-06
F-1.2663000000000001e-05
tRp700
ag4
(F-2.4072999999999998e-06
F-1.0814e-05
tRp701
ag4
(F-2.3105000000000002e-06
F-9.7571000000000001e-06
tRp702
ag4
(F-2.2324e-06
F-9.1417999999999994e-06
tRp703
ag4
(F-2.1683000000000001e-06
F-8.7732999999999995e-06
tRp704
ag4
(F-2.1164000000000002e-06
F-8.5290000000000008e-06
tRp705
ag4
(F-2.0764999999999999e-06
F-8.3219999999999993e-06
tRp706
ag4
(F-2.0524e-06
F-8.0953000000000002e-06
tRp707
ag4
(F-2.0549e-06
F-7.8974e-06
tRp708
ag4
(F-2.1107e-06
F-8.1643000000000008e-06
tRp709
ag4
(F-2.2419999999999999e-06
F-9.6773999999999999e-06
tRp710
ag4
(F-2.4169000000000001e-06
F-1.2499e-05
tRp711
ag4
(F-2.5878e-06
F-1.6290000000000002e-05
tRp712
ag4
(F-2.7124999999999999e-06
F-2.0273000000000001e-05
tRp713
ag4
(F-2.7526999999999999e-06
F-2.1912999999999998e-05
tRp714
ag4
(F-2.7047000000000001e-06
F-1.8297000000000001e-05
tRp715
aa(lp716
g4
(F-2.2148e-06
F-9.4082999999999994e-06
tRp717
ag4
(F-2.1160999999999999e-06
F-8.1879e-06
tRp718
ag4
(F-2.0478000000000001e-06
F-7.6566000000000005e-06
tRp719
ag4
(F-1.9995999999999999e-06
F-7.4966000000000004e-06
tRp720
ag4
(F-1.9659999999999999e-06
F-7.5363000000000002e-06
tRp721
ag4
(F-1.9439000000000001e-06
F-7.6666000000000004e-06
tRp722
ag4
(F-1.9321000000000001e-06
F-7.8034000000000005e-06
tRp723
ag4
(F-1.9313999999999998e-06
F-7.8723000000000008e-06
tRp724
ag4
(F-1.9479e-06
F-7.8454999999999997e-06
tRp725
ag4
(F-2.0008e-06
F-8.0087000000000001e-06
tRp726
ag4
(F-2.1156999999999999e-06
F-9.2196999999999992e-06
tRp727
ag4
(F-2.2656e-06
F-1.1674999999999999e-05
tRp728
ag4
(F-2.4018e-06
F-1.4969e-05
tRp729
ag4
(F-2.4816000000000001e-06
F-1.8093000000000001e-05
tRp730
ag4
(F-2.4704999999999999e-06
F-1.8315e-05
tRp731
ag4
(F-2.3821e-06
F-1.4090000000000001e-05
tRp732
aa(lp733
g4
(F-1.8636e-06
F-6.4938000000000004e-06
tRp734
ag4
(F-1.7880000000000001e-06
F-5.8120999999999998e-06
tRp735
ag4
(F-1.7438999999999999e-06
F-5.7228999999999999e-06
tRp736
ag4
(F-1.7213999999999999e-06
F-5.9449999999999998e-06
tRp737
ag4
(F-1.7144000000000001e-06
F-6.3296000000000004e-06
tRp738
ag4
(F-1.7192e-06
F-6.7805999999999999e-06
tRp739
ag4
(F-1.7332e-06
F-7.2191000000000001e-06
tRp740
ag4
(F-1.7555e-06
F-7.5627999999999998e-06
tRp741
ag4
(F-1.7879000000000001e-06
F-7.7279999999999995e-06
tRp742
ag4
(F-1.8416000000000001e-06
F-7.8398999999999993e-06
tRp743
ag4
(F-1.9410999999999999e-06
F-8.7285999999999997e-06
tRp744
ag4
(F-2.0665999999999998e-06
F-1.0784e-05
tRp745
ag4
(F-2.1693999999999999e-06
F-1.3536999999999999e-05
tRp746
ag4
(F-2.2058000000000001e-06
F-1.5744999999999999e-05
tRp747
ag4
(F-2.1461999999999999e-06
F-1.4639e-05
tRp748
ag4
(F-2.0246000000000001e-06
F-1.0197000000000001e-05
tRp749
aa(lp750
g4
(F-1.4692000000000001e-06
F-3.8994999999999997e-06
tRp751
ag4
(F-1.4132000000000001e-06
F-3.6737999999999999e-06
tRp752
ag4
(F-1.3898e-06
F-3.9536999999999999e-06
tRp753
ag4
(F-1.3893e-06
F-4.4950000000000002e-06
tRp754
ag4
(F-1.4056999999999999e-06
F-5.1691000000000002e-06
tRp755
ag4
(F-1.4344e-06
F-5.8919999999999997e-06
tRp756
ag4
(F-1.4720000000000001e-06
F-6.5915000000000003e-06
tRp757
ag4
(F-1.5163e-06
F-7.1833000000000003e-06
tRp758
ag4
(F-1.5658999999999999e-06
F-7.5491999999999997e-06
tRp759
ag4
(F-1.6242000000000001e-06
F-7.6676999999999994e-06
tRp760
ag4
(F-1.7095999999999999e-06
F-8.2212000000000002e-06
tRp761
ag4
(F-1.8112999999999999e-06
F-9.8361000000000006e-06
tRp762
ag4
(F-1.8813000000000001e-06
F-1.2003e-05
tRp763
ag4
(F-1.8755000000000001e-06
F-1.3261000000000001e-05
tRp764
ag4
(F-1.7702e-06
F-1.0983e-05
tRp765
ag4
(F-1.6232e-06
F-6.6588999999999999e-06
tRp766
aa(lp767
g4
(F-6.6988000000000001e-07
F-1.6318e-06
tRp768
ag4
(F-6.3058999999999998e-07
F-1.7936000000000001e-06
tRp769
ag4
(F-6.2480000000000004e-07
F-2.3844e-06
tRp770
ag4
(F-6.4348000000000004e-07
F-3.1935999999999998e-06
tRp771
ag4
(F-6.8027999999999995e-07
F-4.1108999999999999e-06
tRp772
ag4
(F-7.3025999999999998e-07
F-5.0629000000000003e-06
tRp773
ag4
(F-7.8940000000000001e-07
F-5.9842000000000002e-06
tRp774
ag4
(F-8.5428999999999996e-07
F-6.7932999999999998e-06
tRp775
ag4
(F-9.2136000000000004e-07
F-7.3549999999999999e-06
tRp776
ag4
(F-9.8753999999999991e-07
F-7.5287999999999998e-06
tRp777
ag4
(F-1.0607000000000001e-06
F-7.7519999999999996e-06
tRp778
ag4
(F-1.1392e-06
F-8.8871e-06
tRp779
ag4
(F-1.1768999999999999e-06
F-1.042e-05
tRp780
ag4
(F-1.1294999999999999e-06
F-1.0712e-05
tRp781
ag4
(F-9.8130000000000003e-07
F-7.4545999999999997e-06
tRp782
ag4
(F-8.1630999999999998e-07
F-3.5064999999999998e-06
tRp783
aa(lp784
g4
(F3.4467999999999999e-07
F3.3897000000000002e-07
tRp785
ag4
(F3.6992000000000002e-07
F-1.4566e-07
tRp786
ag4
(F3.6085000000000001e-07
F-9.9287000000000008e-07
tRp787
ag4
(F3.2588e-07
F-2.0221000000000001e-06
tRp788
ag4
(F2.7145000000000001e-07
F-3.1385999999999999e-06
tRp789
ag4
(F2.0286e-07
F-4.2784999999999998e-06
tRp790
ag4
(F1.2459999999999999e-07
F-5.3832000000000004e-06
tRp791
ag4
(F4.0835000000000001e-08
F-6.3759000000000002e-06
tRp792
ag4
(F-4.3338000000000001e-08
F-7.1173999999999998e-06
tRp793
ag4
(F-1.1981000000000001e-07
F-7.3822000000000002e-06
tRp794
ag4
(F-1.8433999999999999e-07
F-7.3207000000000001e-06
tRp795
ag4
(F-2.4070999999999999e-07
F-7.9517000000000005e-06
tRp796
ag4
(F-2.4679e-07
F-8.8164000000000008e-06
tRp797
ag4
(F-1.5881999999999999e-07
F-8.1614999999999997e-06
tRp798
ag4
(F2.8393999999999999e-08
F-4.1593000000000001e-06
tRp799
ag4
(F2.0535e-07
F-7.4293999999999995e-07
tRp800
aa(lp801
g4
(F7.9643999999999995e-07
F2.0878999999999999e-06
tRp802
ag4
(F8.1058999999999995e-07
F1.3518999999999999e-06
tRp803
ag4
(F7.8968999999999997e-07
F3.0764000000000002e-07
tRp804
ag4
(F7.4148999999999995e-07
F-8.9019999999999996e-07
tRp805
ag4
(F6.7245000000000002e-07
F-2.1598999999999999e-06
tRp806
ag4
(F5.8805000000000003e-07
F-3.4458000000000001e-06
tRp807
ag4
(F4.9315999999999995e-07
F-4.6956999999999998e-06
tRp808
ag4
(F3.9247999999999998e-07
F-5.8386000000000003e-06
tRp809
ag4
(F2.9205000000000002e-07
F-6.7391999999999998e-06
tRp810
ag4
(F2.0345000000000001e-07
F-7.1219999999999997e-06
tRp811
ag4
(F1.4223e-07
F-6.8703000000000001e-06
tRp812
ag4
(F1.0588000000000001e-07
F-6.9939000000000001e-06
tRp813
ag4
(F1.3024000000000001e-07
F-7.1747000000000001e-06
tRp814
ag4
(F2.5712000000000002e-07
F-5.6322e-06
tRp815
ag4
(F4.7742e-07
F-1.1774999999999999e-06
tRp816
ag4
(F6.624e-07
F1.6621999999999999e-06
tRp817
aa(lp818
g4
(F2.7247e-07
F3.6594000000000001e-06
tRp819
ag4
(F2.784e-07
F2.7429e-06
tRp820
ag4
(F2.4863999999999998e-07
F1.5600999999999999e-06
tRp821
ag4
(F1.9023999999999999e-07
F2.4401000000000003e-07
tRp822
ag4
(F1.0956e-07
F-1.1345999999999999e-06
tRp823
ag4
(F1.2202000000000001e-08
F-2.5270000000000001e-06
tRp824
ag4
(F-9.6756999999999997e-08
F-3.8866000000000002e-06
tRp825
ag4
(F-2.1225000000000001e-07
F-5.1487999999999997e-06
tRp826
ag4
(F-3.2765e-07
F-6.1863999999999998e-06
tRp827
ag4
(F-4.2939000000000001e-07
F-6.7051999999999998e-06
tRp828
ag4
(F-4.9302e-07
F-6.3806999999999997e-06
tRp829
ag4
(F-5.1160999999999996e-07
F-5.9996000000000001e-06
tRp830
ag4
(F-4.5770999999999999e-07
F-5.4767999999999998e-06
tRp831
ag4
(F-2.9401999999999998e-07
F-3.1234e-06
tRp832
ag4
(F-4.9078999999999999e-08
F1.4449999999999999e-06
tRp833
ag4
(F1.4135999999999999e-07
F3.7355000000000001e-06
tRp834
aa(lp835
g4
(F-4.2707000000000003e-07
F4.9668999999999998e-06
tRp836
ag4
(F-4.2730000000000002e-07
F3.9232e-06
tRp837
ag4
(F-4.636e-07
F2.6467999999999998e-06
tRp838
ag4
(F-5.2964999999999998e-07
F1.2527000000000001e-06
tRp839
ag4
(F-6.1920000000000004e-07
F-1.9737e-07
tRp840
ag4
(F-7.2664e-07
F-1.6606e-06
tRp841
ag4
(F-8.4677999999999996e-07
F-3.0956000000000001e-06
tRp842
ag4
(F-9.7432000000000006e-07
F-4.4433000000000003e-06
tRp843
ag4
(F-1.1023e-06
F-5.587e-06
tRp844
ag4
(F-1.2163999999999999e-06
F-6.2375e-06
tRp845
ag4
(F-1.2861000000000001e-06
F-5.9305999999999996e-06
tRp846
ag4
(F-1.2889000000000001e-06
F-5.0522999999999999e-06
tRp847
ag4
(F-1.2057e-06
F-3.7929000000000001e-06
tRp848
ag4
(F-1.0077999999999999e-06
F-7.0607000000000002e-07
tRp849
ag4
(F-7.4870000000000003e-07
F3.6439e-06
tRp850
ag4
(F-5.5596000000000001e-07
F5.4245999999999997e-06
tRp851
aa(lp852
g4
(F-2.2408000000000001e-07
F5.8683999999999996e-06
tRp853
ag4
(F-2.2910999999999999e-07
F4.7350000000000004e-06
tRp854
ag4
(F-2.7016999999999999e-07
F3.3989000000000002e-06
tRp855
ag4
(F-3.4149999999999998e-07
F1.9599000000000001e-06
tRp856
ag4
(F-4.3706000000000002e-07
F4.7253000000000001e-07
tRp857
ag4
(F-5.5128999999999996e-07
F-1.0252999999999999e-06
tRp858
ag4
(F-6.7894999999999998e-07
F-2.4963999999999999e-06
tRp859
ag4
(F-8.1465999999999996e-07
F-3.8871999999999998e-06
tRp860
ag4
(F-9.5135999999999996e-07
F-5.091e-06
tRp861
ag4
(F-1.0746000000000001e-06
F-5.8375999999999998e-06
tRp862
ag4
(F-1.1509000000000001e-06
F-5.5867999999999996e-06
tRp863
ag4
(F-1.1407999999999999e-06
F-4.2660999999999997e-06
tRp864
ag4
(F-1.0297000000000001e-06
F-2.2666e-06
tRp865
ag4
(F-8.0223999999999996e-07
F1.4363999999999999e-06
tRp866
ag4
(F-5.4002000000000004e-07
F5.3210000000000004e-06
tRp867
ag4
(F-3.4934999999999999e-07
F6.6282999999999997e-06
tRp868
aa(lp869
g4
(F5.7026000000000003e-07
F6.3551000000000004e-06
tRp870
ag4
(F5.6204999999999998e-07
F5.1756e-06
tRp871
ag4
(F5.1844999999999999e-07
F3.8194000000000002e-06
tRp872
ag4
(F4.4467000000000002e-07
F2.3744000000000001e-06
tRp873
ag4
(F3.4652000000000001e-07
F8.8904999999999998e-07
tRp874
ag4
(F2.2943000000000001e-07
F-6.0261999999999998e-07
tRp875
ag4
(F9.8553999999999997e-08
F-2.0667000000000001e-06
tRp876
ag4
(F-4.0731000000000003e-08
F-3.4543000000000001e-06
tRp877
ag4
(F-1.814e-07
F-4.6677000000000002e-06
tRp878
ag4
(F-3.0946999999999998e-07
F-5.4608000000000003e-06
tRp879
ag4
(F-3.9068e-07
F-5.2716999999999999e-06
tRp880
ag4
(F-3.7295000000000001e-07
F-3.6495e-06
tRp881
ag4
(F-2.3891000000000001e-07
F-1.0005e-06
tRp882
ag4
(F8.7594999999999998e-09
F3.1004999999999998e-06
tRp883
ag4
(F2.6516999999999998e-07
F6.4214e-06
tRp884
ag4
(F4.4989000000000001e-07
F7.3274999999999997e-06
tRp885
aa(lp886
g4
(F9.372e-07
F6.5150999999999997e-06
tRp887
ag4
(F9.2798999999999999e-07
F5.3450999999999999e-06
tRp888
ag4
(F8.8456999999999999e-07
F4.0184000000000004e-06
tRp889
ag4
(F8.1164000000000003e-07
F2.6133e-06
tRp890
ag4
(F7.1470000000000001e-07
F1.1734000000000001e-06
tRp891
ag4
(F5.9892000000000002e-07
F-2.7011999999999999e-07
tRp892
ag4
(F4.6931000000000001e-07
F-1.686e-06
tRp893
ag4
(F3.3112000000000002e-07
F-3.0286999999999999e-06
tRp894
ag4
(F1.9121999999999999e-07
F-4.2084000000000002e-06
tRp895
ag4
(F6.2953999999999996e-08
F-5.0023999999999997e-06
tRp896
ag4
(F-2.0567000000000001e-08
F-4.8682999999999996e-06
tRp897
ag4
(F-1.0581000000000001e-09
F-3.1277000000000001e-06
tRp898
ag4
(F1.4723999999999999e-07
F-2.4032e-08
tRp899
ag4
(F4.0119000000000001e-07
F4.1706999999999997e-06
tRp900
ag4
(F6.4542000000000002e-07
F6.9616999999999998e-06
tRp901
ag4
(F8.2175000000000001e-07
F7.5823000000000002e-06
tRp902
aa(lp903
g4
(F8.2752000000000004e-07
F6.3805000000000002e-06
tRp904
ag4
(F8.1920000000000003e-07
F5.2693999999999999e-06
tRp905
ag4
(F7.7838000000000001e-07
F4.0160000000000002e-06
tRp906
ag4
(F7.0928000000000001e-07
F2.6912000000000002e-06
tRp907
ag4
(F6.1699000000000002e-07
F1.3348999999999999e-06
tRp908
ag4
(F5.0635999999999999e-07
F-2.384e-08
tRp909
ag4
(F3.8215000000000002e-07
F-1.3556e-06
tRp910
ag4
(F2.494e-07
F-2.6176000000000001e-06
tRp911
ag4
(F1.1476e-07
F-3.7262e-06
tRp912
ag4
(F-9.1405e-09
F-4.4792999999999996e-06
tRp913
ag4
(F-9.1402e-08
F-4.3771e-06
tRp914
ag4
(F-7.3479999999999994e-08
F-2.6581e-06
tRp915
ag4
(F7.8328999999999999e-08
F6.4407999999999998e-07
tRp916
ag4
(F3.2402000000000001e-07
F4.6461000000000003e-06
tRp917
ag4
(F5.5133e-07
F6.9929999999999998e-06
tRp918
ag4
(F7.1717999999999997e-07
F7.4387999999999998e-06
tRp919
aa(lp920
g4
(F6.7950999999999997e-07
F5.9931000000000003e-06
tRp921
ag4
(F6.7316999999999999e-07
F4.9709000000000001e-06
tRp922
ag4
(F6.3648000000000005e-07
F3.8179000000000003e-06
tRp923
ag4
(F5.7316000000000003e-07
F2.5988e-06
tRp924
ag4
(F4.8788999999999996e-07
F1.3508000000000001e-06
tRp925
ag4
(F3.8514999999999998e-07
F1.0137e-07
tRp926
ag4
(F2.6939000000000001e-07
F-1.1214e-06
tRp927
ag4
(F1.4539000000000001e-07
F-2.2767000000000002e-06
tRp928
ag4
(F1.9501e-08
F-3.2857999999999999e-06
tRp929
ag4
(F-9.6366000000000004e-08
F-3.9643000000000003e-06
tRp930
ag4
(F-1.7393e-07
F-3.8631000000000003e-06
tRp931
ag4
(F-1.5835000000000001e-07
F-2.2373000000000002e-06
tRp932
ag4
(F-1.2807e-08
F1.0129000000000001e-06
tRp933
ag4
(F2.1413e-07
F4.6446000000000004e-06
tRp934
ag4
(F4.2146999999999997e-07
F6.6324999999999996e-06
tRp935
ag4
(F5.7502000000000002e-07
F6.9790999999999998e-06
tRp936
aa(lp937
g4
(F6.0271000000000003e-07
F5.4646000000000002e-06
tRp938
ag4
(F5.9876000000000005e-07
F4.5430999999999998e-06
tRp939
ag4
(F5.6675000000000002e-07
F3.5005000000000002e-06
tRp940
ag4
(F5.1002000000000001e-07
F2.3962999999999998e-06
tRp941
ag4
(F4.3277999999999999e-07
F1.2656e-06
tRp942
ag4
(F3.3916999999999999e-07
F1.3458e-07
tRp943
ag4
(F2.3328999999999999e-07
F-9.696499999999999e-07
tRp944
ag4
(F1.1962999999999999e-07
F-2.0078000000000001e-06
tRp945
ag4
(F4.2359999999999998e-09
F-2.9052999999999999e-06
tRp946
ag4
(F-1.0172e-07
F-3.4931999999999999e-06
tRp947
ag4
(F-1.7259000000000001e-07
F-3.3724000000000001e-06
tRp948
ag4
(F-1.5909e-07
F-1.869e-06
tRp949
ag4
(F-2.6055000000000001e-08
F1.1545999999999999e-06
tRp950
ag4
(F1.7746e-07
F4.3557999999999999e-06
tRp951
ag4
(F3.6407e-07
F6.0569000000000004e-06
tRp952
ag4
(F5.0457999999999998e-07
F6.3489999999999997e-06
tRp953
aa(lp954
g4
(F5.5016999999999996e-07
F4.9019999999999998e-06
tRp955
ag4
(F5.4853999999999996e-07
F4.0803999999999999e-06
tRp956
ag4
(F5.2112999999999996e-07
F3.146e-06
tRp957
ag4
(F4.7091000000000003e-07
F2.1540999999999998e-06
tRp958
ag4
(F4.0167000000000002e-07
F1.1377999999999999e-06
tRp959
ag4
(F3.1720000000000001e-07
F1.2218e-07
tRp960
ag4
(F2.2128000000000001e-07
F-8.6639000000000002e-07
tRp961
ag4
(F1.1810000000000001e-07
F-1.79e-06
tRp962
ag4
(F1.3399999999999999e-08
F-2.5780000000000001e-06
tRp963
ag4
(F-8.2359000000000003e-08
F-3.0751999999999998e-06
tRp964
ag4
(F-1.4600000000000001e-07
F-2.9291e-06
tRp965
ag4
(F-1.3427e-07
F-1.5557e-06
tRp966
ag4
(F-1.604e-08
F1.1621000000000001e-06
tRp967
ag4
(F1.6376000000000001e-07
F3.9457000000000002e-06
tRp968
ag4
(F3.3061999999999998e-07
F5.4164999999999997e-06
tRp969
ag4
(F4.5844000000000002e-07
F5.6783000000000003e-06
tRp970
aa(lp971
g4
(F5.0035999999999996e-07
F4.3659e-06
tRp972
ag4
(F5.0078000000000001e-07
F3.6366e-06
tRp973
ag4
(F4.7754999999999998e-07
F2.802e-06
tRp974
ag4
(F4.333e-07
F1.9134000000000002e-06
tRp975
ag4
(F3.7146000000000002e-07
F1.0022999999999999e-06
tRp976
ag4
(F2.9548e-07
F9.2830000000000005e-08
tRp977
ag4
(F2.0886000000000001e-07
F-7.8953e-07
tRp978
ag4
(F1.155e-07
F-1.6081999999999999e-06
tRp979
ag4
(F2.084e-08
F-2.2962999999999999e-06
tRp980
ag4
(F-6.5336999999999998e-08
F-2.7111000000000002e-06
tRp981
ag4
(F-1.2211e-07
F-2.5421000000000002e-06
tRp982
ag4
(F-1.119e-07
F-1.2956999999999999e-06
tRp983
ag4
(F-8.2201999999999994e-09
F1.1048e-06
tRp984
ag4
(F1.4976000000000001e-07
F3.5147e-06
tRp985
ag4
(F2.9871000000000001e-07
F4.7972999999999998e-06
tRp986
ag4
(F4.1477e-07
F5.0401999999999996e-06
tRp987
aa(lp988
g4
(F4.4932e-07
F3.8817999999999998e-06
tRp989
ag4
(F4.5145999999999999e-07
F3.2347000000000001e-06
tRp990
ag4
(F4.3187000000000002e-07
F2.4889999999999998e-06
tRp991
ag4
(F3.9289999999999998e-07
F1.6926999999999999e-06
tRp992
ag4
(F3.3766000000000002e-07
F8.7553000000000001e-07
tRp993
ag4
(F2.6929e-07
F6.0723999999999995e-08
tRp994
ag4
(F1.9102e-07
F-7.2707000000000001e-07
tRp995
ag4
(F1.0651000000000001e-07
F-1.4527000000000001e-06
tRp996
ag4
(F2.0894999999999999e-08
F-2.0526999999999998e-06
tRp997
ag4
(F-5.6672e-08
F-2.3962999999999998e-06
tRp998
ag4
(F-1.073e-07
F-2.2104999999999998e-06
tRp999
ag4
(F-9.8432000000000004e-08
F-1.0827e-06
tRp1000
ag4
(F-7.9063999999999999e-09
F1.0225e-06
tRp1001
ag4
(F1.3087000000000001e-07
F3.1097999999999999e-06
tRp1002
ag4
(F2.6400999999999999e-07
F4.2363000000000004e-06
tRp1003
ag4
(F3.6946999999999999e-07
F4.4650999999999998e-06
tRp1004
aa(lp1005
g4
(F4.0307999999999998e-07
F3.4545999999999999e-06
tRp1006
ag4
(F4.066e-07
F2.8793999999999999e-06
tRp1007
ag4
(F3.9014000000000002e-07
F2.2118999999999999e-06
tRp1008
ag4
(F3.5577000000000002e-07
F1.4968e-06
tRp1009
ag4
(F3.0630999999999999e-07
F7.6230999999999995e-07
tRp1010
ag4
(F2.4464e-07
F3.0811999999999998e-08
tRp1011
ag4
(F1.7375e-07
F-6.7393e-07
tRp1012
ag4
(F9.7076000000000002e-08
F-1.3180999999999999e-06
tRp1013
ag4
(F1.9467999999999999e-08
F-1.8419999999999999e-06
tRp1014
ag4
(F-5.0512000000000003e-08
F-2.1254999999999998e-06
tRp1015
ag4
(F-9.5784999999999994e-08
F-1.9286999999999998e-06
tRp1016
ag4
(F-8.8115000000000005e-08
F-9.0937000000000005e-07
tRp1017
ag4
(F-9.0364000000000008e-09
F9.3449000000000005e-07
tRp1018
ag4
(F1.1318e-07
F2.7476000000000002e-06
tRp1019
ag4
(F2.325e-07
F3.7425000000000002e-06
tRp1020
ag4
(F3.2851999999999998e-07
F3.9590999999999999e-06
tRp1021
aa(lp1022
g4
(F3.6166999999999998e-07
F3.0817000000000001e-06
tRp1023
ag4
(F3.6628999999999998e-07
F2.5689999999999999e-06
tRp1024
ag4
(F3.5249e-07
F1.9698000000000002e-06
tRp1025
ag4
(F3.2208999999999999e-07
F1.3258000000000001e-06
tRp1026
ag4
(F2.7767000000000002e-07
F6.6380999999999996e-07
tRp1027
ag4
(F2.2186999999999999e-07
F5.2519e-09
tRp1028
ag4
(F1.5745e-07
F-6.2692999999999996e-07
tRp1029
ag4
(F8.7667e-08
F-1.2004e-06
tRp1030
ag4
(F1.7094000000000001e-08
F-1.6587999999999999e-06
tRp1031
ag4
(F-4.6261e-08
F-1.8922000000000001e-06
tRp1032
ag4
(F-8.692e-08
F-1.6897999999999999e-06
tRp1033
ag4
(F-8.0323999999999998e-08
F-7.6807999999999998e-07
tRp1034
ag4
(F-1.1043999999999999e-08
F8.4951000000000004e-07
tRp1035
ag4
(F9.7009000000000005e-08
F2.4310000000000001e-06
tRp1036
ag4
(F2.0431000000000001e-07
F3.3139000000000002e-06
tRp1037
ag4
(F2.9195000000000002e-07
F3.5190999999999999e-06
tRp1038
aa(lp1039
g4
(F3.2518e-07
F2.7576000000000001e-06
tRp1040
ag4
(F3.3066999999999998e-07
F2.2989999999999999e-06
tRp1041
ag4
(F3.1911e-07
F1.7594e-06
tRp1042
ag4
(F2.9214999999999998e-07
F1.1776e-06
tRp1043
ag4
(F2.5212000000000001e-07
F5.7907999999999997e-07
tRp1044
ag4
(F2.0144000000000001e-07
F-1.5652e-08
tRp1045
ag4
(F1.427e-07
F-5.8451000000000004e-07
tRp1046
ag4
(F7.8968999999999997e-08
F-1.0966e-06
tRp1047
ag4
(F1.4564000000000001e-08
F-1.4989e-06
tRp1048
ag4
(F-4.3013999999999997e-08
F-1.6908e-06
tRp1049
ag4
(F-7.9713999999999995e-08
F-1.4868000000000001e-06
tRp1050
ag4
(F-7.4075999999999994e-08
F-6.525e-07
tRp1051
ag4
(F-1.3135999999999999e-08
F7.7105999999999997e-07
tRp1052
ag4
(F8.2818999999999995e-08
F2.1569000000000001e-06
tRp1053
ag4
(F1.7965e-07
F2.9438000000000001e-06
tRp1054
ag4
(F2.5988999999999998e-07
F3.1377999999999998e-06
tRp1055
aa(lp1056
g4
(F2.9321999999999997e-07
F2.4758000000000001e-06
tRp1057
ag4
(F2.9938000000000002e-07
F2.0642999999999999e-06
tRp1058
ag4
(F2.8972999999999999e-07
F1.5767000000000001e-06
tRp1059
ag4
(F2.6574e-07
F1.0494000000000001e-06
tRp1060
ag4
(F2.2952000000000001e-07
F5.0653000000000002e-07
tRp1061
ag4
(F1.8332999999999999e-07
F-3.2263000000000002e-08
tRp1062
ag4
(F1.2959000000000001e-07
F-5.4577000000000005e-07
tRp1063
ag4
(F7.1170999999999996e-08
F-1.0045000000000001e-06
tRp1064
ag4
(F1.2183000000000001e-08
F-1.3587e-06
tRp1065
ag4
(F-4.0353999999999999e-08
F-1.5162e-06
tRp1066
ag4
(F-7.3650000000000001e-08
F-1.3139e-06
tRp1067
ag4
(F-6.8862999999999999e-08
F-5.5744999999999995e-07
tRp1068
ag4
(F-1.5020999999999999e-08
F7.0012999999999996e-07
tRp1069
ag4
(F7.0582000000000003e-08
F1.9201999999999998e-06
tRp1070
ag4
(F1.5830000000000001e-07
F2.6245e-06
tRp1071
ag4
(F2.3195999999999999e-07
F2.8076e-06
tRp1072
aa(lp1073
g4
(F2.6526999999999999e-07
F2.2303999999999999e-06
tRp1074
ag4
(F2.7195e-07
F1.8598e-06
tRp1075
ag4
(F2.6392e-07
F1.4178e-06
tRp1076
ag4
(F2.4249e-07
F9.3842999999999997e-07
tRp1077
ag4
(F2.0961999999999999e-07
F4.4446e-07
tRp1078
ag4
(F1.6737e-07
F-4.5179999999999998e-08
tRp1079
ag4
(F1.1801999999999999e-07
F-5.1019000000000004e-07
tRp1080
ag4
(F6.4294000000000006e-08
F-9.2243999999999999e-07
tRp1081
ag4
(F1.0077e-08
F-1.2353000000000001e-06
tRp1082
ag4
(F-3.8047000000000003e-08
F-1.3644e-06
tRp1083
ag4
(F-6.8404999999999996e-08
F-1.1658999999999999e-06
tRp1084
ag4
(F-6.4373000000000003e-08
F-4.7884999999999998e-07
tRp1085
ag4
(F-1.6584999999999999e-08
F6.3664999999999997e-07
tRp1086
ag4
(F6.0128999999999995e-08
F1.7159e-06
tRp1087
ag4
(F1.3986999999999999e-07
F2.3485e-06
tRp1088
ag4
(F2.0769999999999999e-07
F2.5210999999999999e-06
tRp1089
aaa.